; Function Attrs: mustprogress nounwind uwtable
define hidden void @_ZN12AllocateNode25compute_MemBar_redundancyEP8ciMethod(ptr nocapture noundef nonnull writeonly align 8 dereferenceable(131) %0, ptr noundef nonnull %1) local_unnamed_addr #2 align 2 {
  %3 = tail call noundef ptr @_ZN8ciMethod8get_bceaEv(ptr noundef nonnull align 8 dereferenceable(160) %1) #15
  %4 = icmp eq ptr %3, null
  br i1 %4, label %_ZNK16BCEscapeAnalyzer12is_arg_localEi.exit.thread, label %5

5:                                                ; preds = %2
  %6 = getelementptr inbounds i8, ptr %3, i64 8
  %7 = load i8, ptr %6, align 8
  %8 = trunc i8 %7 to i1
  br i1 %8, label %_ZNK16BCEscapeAnalyzer12is_arg_localEi.exit.thread, label %9

9:                                                ; preds = %5
  %10 = getelementptr inbounds i8, ptr %3, i64 72
  %11 = load i32, ptr %10, align 8
  %.not.i.i.not = icmp eq i32 %11, 0
  br i1 %.not.i.i.not, label %.thread, label %_ZNK16BCEscapeAnalyzer12is_arg_stackEi.exit

_ZNK16BCEscapeAnalyzer12is_arg_stackEi.exit:      ; preds = %9
  %12 = getelementptr inbounds i8, ptr %3, i64 80
  %13 = load ptr, ptr %12, align 8
  %14 = load i32, ptr %13, align 4
  %15 = and i32 %14, 1
  %.not = icmp eq i32 %15, 0
  br i1 %.not, label %.thread, label %22

.thread:                                          ; preds = %_ZNK16BCEscapeAnalyzer12is_arg_stackEi.exit, %9
  %16 = getelementptr inbounds i8, ptr %3, i64 40
  %17 = load i32, ptr %16, align 8
  %.not.i.i5.not = icmp eq i32 %17, 0
  br i1 %.not.i.i5.not, label %_ZNK16BCEscapeAnalyzer12is_arg_localEi.exit.thread, label %_ZNK16BCEscapeAnalyzer12is_arg_localEi.exit

_ZNK16BCEscapeAnalyzer12is_arg_localEi.exit:      ; preds = %.thread
  %18 = getelementptr inbounds i8, ptr %3, i64 48
  %19 = load ptr, ptr %18, align 8
  %20 = load i32, ptr %19, align 4
  %21 = and i32 %20, 1
  %.not7 = icmp eq i32 %21, 0
  br i1 %.not7, label %_ZNK16BCEscapeAnalyzer12is_arg_localEi.exit.thread, label %22

22:                                               ; preds = %_ZNK16BCEscapeAnalyzer12is_arg_localEi.exit, %_ZNK16BCEscapeAnalyzer12is_arg_stackEi.exit
  %23 = getelementptr inbounds i8, ptr %0, i64 130
  store i8 1, ptr %23, align 2
  br label %_ZNK16BCEscapeAnalyzer12is_arg_localEi.exit.thread

_ZNK16BCEscapeAnalyzer12is_arg_localEi.exit.thread: ; preds = %5, %.thread, %2, %22, %_ZNK16BCEscapeAnalyzer12is_arg_localEi.exit
  ret void
}